; Function Attrs: mustprogress uwtable
define void @_ZN32pxrInternal_v0_24__pxrReserved__34UsdRenderComputeNamespacedSettingsERKNS_7UsdPrimERKSt6vectorINS_7TfTokenESaIS4_EE(ptr dead_on_unwind noalias writable sret(%"class.pxrInternal_v0_24__pxrReserved__::VtDictionary") align 8 %0, ptr noundef nonnull align 8 dereferenceable(32) %1, ptr nocapture noundef nonnull readonly align 8 dereferenceable(24) %2) local_unnamed_addr #0 personality ptr @__gxx_personality_v0 {
  store ptr null, ptr %0, align 8
  invoke fastcc void @_ZN32pxrInternal_v0_24__pxrReserved__L23_ReadNamespacedSettingsERKNS_7UsdPrimERKSt6vectorINS_7TfTokenESaIS4_EEPNS_12VtDictionaryE(ptr noundef nonnull align 8 dereferenceable(32) %1, ptr noundef nonnull align 8 dereferenceable(24) %2, ptr noundef nonnull %0)
          to label %6 unwind label %4

4:                                                ; preds = %3
  %5 = landingpad { ptr, i32 }
          cleanup
  tail call void @_ZN32pxrInternal_v0_24__pxrReserved__12VtDictionaryD2Ev(ptr noundef nonnull align 8 dereferenceable(8) %0) #16
  resume { ptr, i32 } %5

6:                                                ; preds = %3
  ret void
}